target datalayout = "e-m:e-p270:32:32-p271:32:32-p272:64:64-i64:64-i128:128-f80:128-n8:16:32:64-S128"
target triple = "x86_64-pc-linux-gnu"

%struct.Fxch_Man_t_ = type { ptr, i32, i32, ptr, ptr, ptr, ptr, ptr, ptr, ptr, ptr, ptr, ptr, ptr, ptr, i32, ptr, ptr, ptr, ptr, ptr, ptr, ptr, i64, i64, i32, i32, i32, i32, i32 }
%struct.Vec_Wec_t_ = type { i32, i32, ptr }
%struct.Vec_Int_t_ = type { i32, i32, ptr }

; Function Attrs: inlinehint nounwind uwtable
define internal i32 @Vec_IntSize(ptr noundef %0) #3 {
  %2 = alloca ptr, align 8
  store ptr %0, ptr %2, align 8, !tbaa !48
  %3 = load ptr, ptr %2, align 8, !tbaa !48
  %4 = getelementptr inbounds nuw %struct.Vec_Int_t_, ptr %3, i32 0, i32 1
  %5 = load i32, ptr %4, align 4, !tbaa !49
  ret i32 %5
}

; Function Attrs: inlinehint nounwind uwtable
define internal ptr @Vec_WecEntry(ptr noundef %0, i32 noundef %1) #3 {
  %3 = alloca ptr, align 8
  %4 = alloca i32, align 4
  store ptr %0, ptr %3, align 8, !tbaa !3
  store i32 %1, ptr %4, align 4, !tbaa !33
  %5 = load ptr, ptr %3, align 8, !tbaa !3
  %6 = getelementptr inbounds nuw %struct.Vec_Wec_t_, ptr %5, i32 0, i32 2
  %7 = load ptr, ptr %6, align 8, !tbaa !47
  %8 = load i32, ptr %4, align 4, !tbaa !33
  %9 = sext i32 %8 to i64
  %10 = getelementptr inbounds %struct.Vec_Int_t_, ptr %7, i64 %9
  ret ptr %10
}

; Function Attrs: inlinehint nounwind uwtable
define internal i32 @Vec_WecSize(ptr noundef %0) #3 {
  %2 = alloca ptr, align 8
  store ptr %0, ptr %2, align 8, !tbaa !3
  %3 = load ptr, ptr %2, align 8, !tbaa !3
  %4 = getelementptr inbounds nuw %struct.Vec_Wec_t_, ptr %3, i32 0, i32 1
  %5 = load i32, ptr %4, align 4, !tbaa !31
  ret i32 %5
}

; Function Attrs: nounwind uwtable
define void @Fxch_ManSCHashTablesInit(ptr noundef %0) #0 {
  %2 = alloca ptr, align 8
  %3 = alloca ptr, align 8
  %4 = alloca ptr, align 8
  %5 = alloca i32, align 4
  %6 = alloca i32, align 4
  %7 = alloca i32, align 4
  %8 = alloca i32, align 4
  store ptr %0, ptr %2, align 8, !tbaa !8
  call void @llvm.lifetime.start.p0(i64 8, ptr %3) #10
  %9 = load ptr, ptr %2, align 8, !tbaa !8
  %10 = getelementptr inbounds nuw %struct.Fxch_Man_t_, ptr %9, i32 0, i32 0
  %11 = load ptr, ptr %10, align 8, !tbaa !10
  store ptr %11, ptr %3, align 8, !tbaa !3
  call void @llvm.lifetime.start.p0(i64 8, ptr %4) #10
  call void @llvm.lifetime.start.p0(i64 4, ptr %5) #10
  call void @llvm.lifetime.start.p0(i64 4, ptr %6) #10
  store i32 0, ptr %6, align 4, !tbaa !33
  store i32 0, ptr %5, align 4, !tbaa !33
  br label %12

12:                                               ; preds = %45, %1
  %13 = load i32, ptr %5, align 4, !tbaa !33
  %14 = load ptr, ptr %3, align 8, !tbaa !3
  %15 = call i32 @Vec_WecSize(ptr noundef %14)
  %16 = icmp slt i32 %13, %15
  br i1 %16, label %17, label %21

17:                                               ; preds = %12
  %18 = load ptr, ptr %3, align 8, !tbaa !3
  %19 = load i32, ptr %5, align 4, !tbaa !33
  %20 = call ptr @Vec_WecEntry(ptr noundef %18, i32 noundef %19)
  store ptr %20, ptr %4, align 8, !tbaa !48
  br label %21

21:                                               ; preds = %17, %12
  %22 = phi i1 [ false, %12 ], [ true, %17 ]
  br i1 %22, label %23, label %48

23:                                               ; preds = %21
  call void @llvm.lifetime.start.p0(i64 4, ptr %7) #10
  %24 = load ptr, ptr %4, align 8, !tbaa !48
  %25 = call i32 @Vec_IntSize(ptr noundef %24)
  %26 = sub nsw i32 %25, 1
  store i32 %26, ptr %7, align 4, !tbaa !33
  call void @llvm.lifetime.start.p0(i64 4, ptr %8) #10
  %27 = load i32, ptr %7, align 4, !tbaa !33
  %28 = icmp sle i32 %27, 2
  br i1 %28, label %29, label %32

29:                                               ; preds = %23
  %30 = load i32, ptr %7, align 4, !tbaa !33
  %31 = add nsw i32 %30, 1
  br label %39

32:                                               ; preds = %23
  %33 = load i32, ptr %7, align 4, !tbaa !33
  %34 = load i32, ptr %7, align 4, !tbaa !33
  %35 = mul nsw i32 %33, %34
  %36 = load i32, ptr %7, align 4, !tbaa !33
  %37 = add nsw i32 %35, %36
  %38 = sdiv i32 %37, 2
  br label %39

39:                                               ; preds = %32, %29
  %40 = phi i32 [ %31, %29 ], [ %38, %32 ]
  store i32 %40, ptr %8, align 4, !tbaa !33
  %41 = load i32, ptr %8, align 4, !tbaa !33
  %42 = add nsw i32 %41, 1
  %43 = load i32, ptr %6, align 4, !tbaa !33
  %44 = add nsw i32 %43, %42
  store i32 %44, ptr %6, align 4, !tbaa !33
  call void @llvm.lifetime.end.p0(i64 4, ptr %8) #10
  call void @llvm.lifetime.end.p0(i64 4, ptr %7) #10
  br label %45

45:                                               ; preds = %39
  %46 = load i32, ptr %5, align 4, !tbaa !33
  %47 = add nsw i32 %46, 1
  store i32 %47, ptr %5, align 4, !tbaa !33
  br label %12, !llvm.loop !73

48:                                               ; preds = %21
  %49 = load ptr, ptr %2, align 8, !tbaa !8
  %50 = load i32, ptr %6, align 4, !tbaa !33
  %51 = call ptr @Fxch_SCHashTableCreate(ptr noundef %49, i32 noundef %50)
  %52 = load ptr, ptr %2, align 8, !tbaa !8
  %53 = getelementptr inbounds nuw %struct.Fxch_Man_t_, ptr %52, i32 0, i32 3
  store ptr %51, ptr %53, align 8, !tbaa !74
  call void @llvm.lifetime.end.p0(i64 4, ptr %6) #10
  call void @llvm.lifetime.end.p0(i64 4, ptr %5) #10
  call void @llvm.lifetime.end.p0(i64 8, ptr %4) #10
  call void @llvm.lifetime.end.p0(i64 8, ptr %3) #10
  ret void
}