; Function Attrs: nounwind uwtable
define void @Fxch_ManSCHashTablesInit(ptr noundef %0) local_unnamed_addr #3 {
  %2 = load ptr, ptr %0, align 8, !tbaa !3
  %3 = getelementptr i8, ptr %2, i64 4
  %.val = load i32, ptr %3, align 4, !tbaa !17
  %4 = icmp sgt i32 %.val, 0
  br i1 %4, label %.lr.ph, label %.critedge

.lr.ph:                                           ; preds = %1
  %5 = getelementptr i8, ptr %2, i64 8
  %.val18 = load ptr, ptr %5, align 8, !tbaa !39
  %wide.trip.count = zext nneg i32 %.val to i64
  br label %6

6:                                                ; preds = %.lr.ph, %6
  %indvars.iv = phi i64 [ 0, %.lr.ph ], [ %indvars.iv.next, %6 ]
  %.01620 = phi i32 [ 0, %.lr.ph ], [ %14, %6 ]
  %7 = getelementptr %struct.Vec_Int_t_, ptr %.val18, i64 %indvars.iv, i32 1
  %.val19 = load i32, ptr %7, align 4, !tbaa !26
  %8 = icmp slt i32 %.val19, 4
  %9 = add nsw i32 %.val19, -1
  %10 = mul i32 %9, %.val19
  %11 = lshr i32 %10, 1
  %12 = select i1 %8, i32 %.val19, i32 %11
  %13 = add i32 %.01620, 1
  %14 = add i32 %13, %12
  %indvars.iv.next = add nuw nsw i64 %indvars.iv, 1
  %exitcond.not = icmp eq i64 %indvars.iv.next, %wide.trip.count
  br i1 %exitcond.not, label %.critedge, label %6, !llvm.loop !69

.critedge:                                        ; preds = %6, %1
  %.016.lcssa = phi i32 [ 0, %1 ], [ %14, %6 ]
  %15 = tail call ptr @Fxch_SCHashTableCreate(ptr noundef nonnull %0, i32 noundef %.016.lcssa) #21
  %16 = getelementptr inbounds nuw i8, ptr %0, i64 16
  store ptr %15, ptr %16, align 8, !tbaa !70
  ret void
}